target datalayout = "e-m:e-p270:32:32-p271:32:32-p272:64:64-i64:64-f80:128-n8:16:32:64-S128"
target triple = "x86_64-pc-linux-gnu"

%struct.stu = type { [20 x i8], i32, i32, i8, i8, i32 }

@.str = private unnamed_addr constant [4 x i8] c"%d\0A\00", align 1
@.str.1 = private unnamed_addr constant [18 x i8] c"%s %d %d %c %c %d\00", align 1
@stu = common dso_local global [100 x %struct.stu] zeroinitializer, align 16
@.str.2 = private unnamed_addr constant [9 x i8] c"%s\0A%d\0A%d\00", align 1

; Function Attrs: noinline nounwind uwtable
define dso_local void @main() #0 {
  %1 = alloca i32, align 4
  %2 = alloca i32, align 4
  %3 = alloca i32, align 4
  %4 = alloca i32, align 4
  %5 = alloca [100 x i32], align 16
  %6 = call i32 (i8*, ...) @__isoc99_scanf(i8* getelementptr inbounds ([4 x i8], [4 x i8]* @.str, i64 0, i64 0), i32* %1)
  store i32 0, i32* %2, align 4
  br label %7

7:                                                ; preds = %38, %0
  %8 = load i32, i32* %2, align 4
  %9 = load i32, i32* %1, align 4
  %10 = icmp slt i32 %8, %9
  br i1 %10, label %11, label %41

11:                                               ; preds = %7
  %12 = load i32, i32* %2, align 4
  %13 = sext i32 %12 to i64
  %14 = getelementptr inbounds [100 x %struct.stu], [100 x %struct.stu]* @stu, i64 0, i64 %13
  %15 = getelementptr inbounds %struct.stu, %struct.stu* %14, i32 0, i32 0
  %16 = getelementptr inbounds [20 x i8], [20 x i8]* %15, i64 0, i64 0
  %17 = load i32, i32* %2, align 4
  %18 = sext i32 %17 to i64
  %19 = getelementptr inbounds [100 x %struct.stu], [100 x %struct.stu]* @stu, i64 0, i64 %18
  %20 = getelementptr inbounds %struct.stu, %struct.stu* %19, i32 0, i32 1
  %21 = load i32, i32* %2, align 4
  %22 = sext i32 %21 to i64
  %23 = getelementptr inbounds [100 x %struct.stu], [100 x %struct.stu]* @stu, i64 0, i64 %22
  %24 = getelementptr inbounds %struct.stu, %struct.stu* %23, i32 0, i32 2
  %25 = load i32, i32* %2, align 4
  %26 = sext i32 %25 to i64
  %27 = getelementptr inbounds [100 x %struct.stu], [100 x %struct.stu]* @stu, i64 0, i64 %26
  %28 = getelementptr inbounds %struct.stu, %struct.stu* %27, i32 0, i32 3
  %29 = load i32, i32* %2, align 4
  %30 = sext i32 %29 to i64
  %31 = getelementptr inbounds [100 x %struct.stu], [100 x %struct.stu]* @stu, i64 0, i64 %30
  %32 = getelementptr inbounds %struct.stu, %struct.stu* %31, i32 0, i32 4
  %33 = load i32, i32* %2, align 4
  %34 = sext i32 %33 to i64
  %35 = getelementptr inbounds [100 x %struct.stu], [100 x %struct.stu]* @stu, i64 0, i64 %34
  %36 = getelementptr inbounds %struct.stu, %struct.stu* %35, i32 0, i32 5
  %37 = call i32 (i8*, ...) @__isoc99_scanf(i8* getelementptr inbounds ([18 x i8], [18 x i8]* @.str.1, i64 0, i64 0), i8* %16, i32* %20, i32* %24, i8* %28, i8* %32, i32* %36)
  br label %38

38:                                               ; preds = %11
  %39 = load i32, i32* %2, align 4
  %40 = add nsw i32 %39, 1
  store i32 %40, i32* %2, align 4
  br label %7

41:                                               ; preds = %7
  store i32 0, i32* %2, align 4
  br label %42

42:                                               ; preds = %160, %41
  %43 = load i32, i32* %2, align 4
  %44 = load i32, i32* %1, align 4
  %45 = icmp slt i32 %43, %44
  br i1 %45, label %46, label %163

46:                                               ; preds = %42
  %47 = load i32, i32* %2, align 4
  %48 = sext i32 %47 to i64
  %49 = getelementptr inbounds [100 x i32], [100 x i32]* %5, i64 0, i64 %48
  store i32 0, i32* %49, align 4
  %50 = load i32, i32* %2, align 4
  %51 = sext i32 %50 to i64
  %52 = getelementptr inbounds [100 x %struct.stu], [100 x %struct.stu]* @stu, i64 0, i64 %51
  %53 = getelementptr inbounds %struct.stu, %struct.stu* %52, i32 0, i32 1
  %54 = load i32, i32* %53, align 4
  %55 = icmp sgt i32 %54, 80
  br i1 %55, label %56, label %72

56:                                               ; preds = %46
  %57 = load i32, i32* %2, align 4
  %58 = sext i32 %57 to i64
  %59 = getelementptr inbounds [100 x %struct.stu], [100 x %struct.stu]* @stu, i64 0, i64 %58
  %60 = getelementptr inbounds %struct.stu, %struct.stu* %59, i32 0, i32 5
  %61 = load i32, i32* %60, align 4
  %62 = icmp sgt i32 %61, 0
  br i1 %62, label %63, label %72

63:                                               ; preds = %56
  %64 = load i32, i32* %2, align 4
  %65 = sext i32 %64 to i64
  %66 = getelementptr inbounds [100 x i32], [100 x i32]* %5, i64 0, i64 %65
  %67 = load i32, i32* %66, align 4
  %68 = add nsw i32 %67, 8000
  %69 = load i32, i32* %2, align 4
  %70 = sext i32 %69 to i64
  %71 = getelementptr inbounds [100 x i32], [100 x i32]* %5, i64 0, i64 %70
  store i32 %68, i32* %71, align 4
  br label %72

72:                                               ; preds = %63, %56, %46
  %73 = load i32, i32* %2, align 4
  %74 = sext i32 %73 to i64
  %75 = getelementptr inbounds [100 x %struct.stu], [100 x %struct.stu]* @stu, i64 0, i64 %74
  %76 = getelementptr inbounds %struct.stu, %struct.stu* %75, i32 0, i32 1
  %77 = load i32, i32* %76, align 4
  %78 = icmp sgt i32 %77, 85
  br i1 %78, label %79, label %95

79:                                               ; preds = %72
  %80 = load i32, i32* %2, align 4
  %81 = sext i32 %80 to i64
  %82 = getelementptr inbounds [100 x %struct.stu], [100 x %struct.stu]* @stu, i64 0, i64 %81
  %83 = getelementptr inbounds %struct.stu, %struct.stu* %82, i32 0, i32 2
  %84 = load i32, i32* %83, align 4
  %85 = icmp sgt i32 %84, 80
  br i1 %85, label %86, label %95

86:                                               ; preds = %79
  %87 = load i32, i32* %2, align 4
  %88 = sext i32 %87 to i64
  %89 = getelementptr inbounds [100 x i32], [100 x i32]* %5, i64 0, i64 %88
  %90 = load i32, i32* %89, align 4
  %91 = add nsw i32 %90, 4000
  %92 = load i32, i32* %2, align 4
  %93 = sext i32 %92 to i64
  %94 = getelementptr inbounds [100 x i32], [100 x i32]* %5, i64 0, i64 %93
  store i32 %91, i32* %94, align 4
  br label %95

95:                                               ; preds = %86, %79, %72
  %96 = load i32, i32* %2, align 4
  %97 = sext i32 %96 to i64
  %98 = getelementptr inbounds [100 x %struct.stu], [100 x %struct.stu]* @stu, i64 0, i64 %97
  %99 = getelementptr inbounds %struct.stu, %struct.stu* %98, i32 0, i32 1
  %100 = load i32, i32* %99, align 4
  %101 = icmp sgt i32 %100, 90
  br i1 %101, label %102, label %111

102:                                              ; preds = %95
  %103 = load i32, i32* %2, align 4
  %104 = sext i32 %103 to i64
  %105 = getelementptr inbounds [100 x i32], [100 x i32]* %5, i64 0, i64 %104
  %106 = load i32, i32* %105, align 4
  %107 = add nsw i32 %106, 2000
  %108 = load i32, i32* %2, align 4
  %109 = sext i32 %108 to i64
  %110 = getelementptr inbounds [100 x i32], [100 x i32]* %5, i64 0, i64 %109
  store i32 %107, i32* %110, align 4
  br label %111

111:                                              ; preds = %102, %95
  %112 = load i32, i32* %2, align 4
  %113 = sext i32 %112 to i64
  %114 = getelementptr inbounds [100 x %struct.stu], [100 x %struct.stu]* @stu, i64 0, i64 %113
  %115 = getelementptr inbounds %struct.stu, %struct.stu* %114, i32 0, i32 1
  %116 = load i32, i32* %115, align 4
  %117 = icmp sgt i32 %116, 85
  br i1 %117, label %118, label %135

118:                                              ; preds = %111
  %119 = load i32, i32* %2, align 4
  %120 = sext i32 %119 to i64
  %121 = getelementptr inbounds [100 x %struct.stu], [100 x %struct.stu]* @stu, i64 0, i64 %120
  %122 = getelementptr inbounds %struct.stu, %struct.stu* %121, i32 0, i32 4
  %123 = load i8, i8* %122, align 1
  %124 = sext i8 %123 to i32
  %125 = icmp eq i32 %124, 89
  br i1 %125, label %126, label %135

126:                                              ; preds = %118
  %127 = load i32, i32* %2, align 4
  %128 = sext i32 %127 to i64
  %129 = getelementptr inbounds [100 x i32], [100 x i32]* %5, i64 0, i64 %128
  %130 = load i32, i32* %129, align 4
  %131 = add nsw i32 %130, 1000
  %132 = load i32, i32* %2, align 4
  %133 = sext i32 %132 to i64
  %134 = getelementptr inbounds [100 x i32], [100 x i32]* %5, i64 0, i64 %133
  store i32 %131, i32* %134, align 4
  br label %135

135:                                              ; preds = %126, %118, %111
  %136 = load i32, i32* %2, align 4
  %137 = sext i32 %136 to i64
  %138 = getelementptr inbounds [100 x %struct.stu], [100 x %struct.stu]* @stu, i64 0, i64 %137
  %139 = getelementptr inbounds %struct.stu, %struct.stu* %138, i32 0, i32 2
  %140 = load i32, i32* %139, align 4
  %141 = icmp sgt i32 %140, 80
  br i1 %141, label %142, label %159

142:                                              ; preds = %135
  %143 = load i32, i32* %2, align 4
  %144 = sext i32 %143 to i64
  %145 = getelementptr inbounds [100 x %struct.stu], [100 x %struct.stu]* @stu, i64 0, i64 %144
  %146 = getelementptr inbounds %struct.stu, %struct.stu* %145, i32 0, i32 3
  %147 = load i8, i8* %146, align 4
  %148 = sext i8 %147 to i32
  %149 = icmp eq i32 %148, 89
  br i1 %149, label %150, label %159

150:                                              ; preds = %142
  %151 = load i32, i32* %2, align 4
  %152 = sext i32 %151 to i64
  %153 = getelementptr inbounds [100 x i32], [100 x i32]* %5, i64 0, i64 %152
  %154 = load i32, i32* %153, align 4
  %155 = add nsw i32 %154, 850
  %156 = load i32, i32* %2, align 4
  %157 = sext i32 %156 to i64
  %158 = getelementptr inbounds [100 x i32], [100 x i32]* %5, i64 0, i64 %157
  store i32 %155, i32* %158, align 4
  br label %159

159:                                              ; preds = %150, %142, %135
  br label %160

160:                                              ; preds = %159
  %161 = load i32, i32* %2, align 4
  %162 = add nsw i32 %161, 1
  store i32 %162, i32* %2, align 4
  br label %42

163:                                              ; preds = %42
  %164 = getelementptr inbounds [100 x i32], [100 x i32]* %5, i64 0, i64 0
  %165 = load i32, i32* %164, align 16
  store i32 %165, i32* %3, align 4
  store i32 1, i32* %2, align 4
  br label %166

166:                                              ; preds = %177, %163
  %167 = load i32, i32* %2, align 4
  %168 = load i32, i32* %1, align 4
  %169 = icmp slt i32 %167, %168
  br i1 %169, label %170, label %180

170:                                              ; preds = %166
  %171 = load i32, i32* %3, align 4
  %172 = load i32, i32* %2, align 4
  %173 = sext i32 %172 to i64
  %174 = getelementptr inbounds [100 x i32], [100 x i32]* %5, i64 0, i64 %173
  %175 = load i32, i32* %174, align 4
  %176 = add nsw i32 %171, %175
  store i32 %176, i32* %3, align 4
  br label %177

177:                                              ; preds = %170
  %178 = load i32, i32* %2, align 4
  %179 = add nsw i32 %178, 1
  store i32 %179, i32* %2, align 4
  br label %166

180:                                              ; preds = %166
  store i32 0, i32* %2, align 4
  br label %181

181:                                              ; preds = %211, %180
  %182 = load i32, i32* %2, align 4
  %183 = load i32, i32* %1, align 4
  %184 = icmp slt i32 %182, %183
  br i1 %184, label %185, label %214

185:                                              ; preds = %181
  store i32 0, i32* %4, align 4
  br label %186

186:                                              ; preds = %202, %185
  %187 = load i32, i32* %4, align 4
  %188 = load i32, i32* %1, align 4
  %189 = icmp slt i32 %187, %188
  br i1 %189, label %190, label %205

190:                                              ; preds = %186
  %191 = load i32, i32* %2, align 4
  %192 = sext i32 %191 to i64
  %193 = getelementptr inbounds [100 x i32], [100 x i32]* %5, i64 0, i64 %192
  %194 = load i32, i32* %193, align 4
  %195 = load i32, i32* %4, align 4
  %196 = sext i32 %195 to i64
  %197 = getelementptr inbounds [100 x i32], [100 x i32]* %5, i64 0, i64 %196
  %198 = load i32, i32* %197, align 4
  %199 = icmp slt i32 %194, %198
  br i1 %199, label %200, label %201

200:                                              ; preds = %190
  br label %205

201:                                              ; preds = %190
  br label %202

202:                                              ; preds = %201
  %203 = load i32, i32* %4, align 4
  %204 = add nsw i32 %203, 1
  store i32 %204, i32* %4, align 4
  br label %186

205:                                              ; preds = %200, %186
  %206 = load i32, i32* %4, align 4
  %207 = load i32, i32* %1, align 4
  %208 = icmp eq i32 %206, %207
  br i1 %208, label %209, label %210

209:                                              ; preds = %205
  br label %214

210:                                              ; preds = %205
  br label %211

211:                                              ; preds = %210
  %212 = load i32, i32* %2, align 4
  %213 = add nsw i32 %212, 1
  store i32 %213, i32* %2, align 4
  br label %181

214:                                              ; preds = %209, %181
  %215 = load i32, i32* %2, align 4
  %216 = sext i32 %215 to i64
  %217 = getelementptr inbounds [100 x %struct.stu], [100 x %struct.stu]* @stu, i64 0, i64 %216
  %218 = getelementptr inbounds %struct.stu, %struct.stu* %217, i32 0, i32 0
  %219 = getelementptr inbounds [20 x i8], [20 x i8]* %218, i64 0, i64 0
  %220 = load i32, i32* %2, align 4
  %221 = sext i32 %220 to i64
  %222 = getelementptr inbounds [100 x i32], [100 x i32]* %5, i64 0, i64 %221
  %223 = load i32, i32* %222, align 4
  %224 = load i32, i32* %3, align 4
  %225 = call i32 (i8*, ...) @printf(i8* getelementptr inbounds ([9 x i8], [9 x i8]* @.str.2, i64 0, i64 0), i8* %219, i32 %223, i32 %224)
  ret void
}